; Function Attrs: mustprogress nofree norecurse nosync nounwind willreturn memory(readwrite, inaccessiblemem: none) uwtable
define internal void @_ZN5faiss33IndexIVFAdditiveQuantizerFastScan19estimate_norm_scaleElPKf.omp_outlined.omp.reduction.reduction_func(ptr noundef readonly captures(none) %0, ptr noundef readonly captures(none) %1) #22 {
  %3 = load ptr, ptr %1, align 8
  %4 = load ptr, ptr %0, align 8
  %5 = load float, ptr %4, align 4, !tbaa !68
  %6 = load float, ptr %3, align 4, !tbaa !68
  %7 = fadd float %5, %6
  store float %7, ptr %4, align 4, !tbaa !68
  ret void
}